target datalayout = "e-m:e-p270:32:32-p271:32:32-p272:64:64-i64:64-i128:128-f80:128-n8:16:32:64-S128"
target triple = "x86_64-pc-linux-gnu"

%struct.opj_tcd_precinct = type { i32, i32, i32, i32, i32, i32, %union.anon.0, i32, ptr, ptr }
%union.anon.0 = type { ptr }
%struct.opj_tcd_cblk_enc = type { ptr, ptr, ptr, i32, i32, i32, i32, i32, i32, i32, i32, i32, i32 }

; Function Attrs: nounwind uwtable
define internal void @opj_tcd_code_block_enc_deallocate(ptr noundef %0) #0 {
  %2 = alloca ptr, align 8
  %3 = alloca i32, align 4
  %4 = alloca i32, align 4
  %5 = alloca ptr, align 8
  store ptr %0, ptr %2, align 8, !tbaa !46
  call void @llvm.lifetime.start.p0(i64 4, ptr %3) #8
  call void @llvm.lifetime.start.p0(i64 4, ptr %4) #8
  call void @llvm.lifetime.start.p0(i64 8, ptr %5) #8
  %6 = load ptr, ptr %2, align 8, !tbaa !46
  %7 = getelementptr inbounds nuw %struct.opj_tcd_precinct, ptr %6, i32 0, i32 6
  %8 = load ptr, ptr %7, align 8, !tbaa !36
  store ptr %8, ptr %5, align 8, !tbaa !150
  %9 = load ptr, ptr %5, align 8, !tbaa !150
  %10 = icmp ne ptr %9, null
  br i1 %10, label %11, label %66

11:                                               ; preds = %1
  %12 = load ptr, ptr %2, align 8, !tbaa !46
  %13 = getelementptr inbounds nuw %struct.opj_tcd_precinct, ptr %12, i32 0, i32 7
  %14 = load i32, ptr %13, align 8, !tbaa !149
  %15 = udiv i32 %14, 64
  store i32 %15, ptr %4, align 4, !tbaa !3
  store i32 0, ptr %3, align 4, !tbaa !3
  br label %16

16:                                               ; preds = %57, %11
  %17 = load i32, ptr %3, align 4, !tbaa !3
  %18 = load i32, ptr %4, align 4, !tbaa !3
  %19 = icmp ult i32 %17, %18
  br i1 %19, label %20, label %60

20:                                               ; preds = %16
  %21 = load ptr, ptr %5, align 8, !tbaa !150
  %22 = getelementptr inbounds nuw %struct.opj_tcd_cblk_enc, ptr %21, i32 0, i32 0
  %23 = load ptr, ptr %22, align 8, !tbaa !272
  %24 = icmp ne ptr %23, null
  br i1 %24, label %25, label %32

25:                                               ; preds = %20
  %26 = load ptr, ptr %5, align 8, !tbaa !150
  %27 = getelementptr inbounds nuw %struct.opj_tcd_cblk_enc, ptr %26, i32 0, i32 0
  %28 = load ptr, ptr %27, align 8, !tbaa !272
  %29 = getelementptr inbounds i8, ptr %28, i64 -1
  call void @opj_free(ptr noundef %29)
  %30 = load ptr, ptr %5, align 8, !tbaa !150
  %31 = getelementptr inbounds nuw %struct.opj_tcd_cblk_enc, ptr %30, i32 0, i32 0
  store ptr null, ptr %31, align 8, !tbaa !272
  br label %32

32:                                               ; preds = %25, %20
  %33 = load ptr, ptr %5, align 8, !tbaa !150
  %34 = getelementptr inbounds nuw %struct.opj_tcd_cblk_enc, ptr %33, i32 0, i32 1
  %35 = load ptr, ptr %34, align 8, !tbaa !269
  %36 = icmp ne ptr %35, null
  br i1 %36, label %37, label %43

37:                                               ; preds = %32
  %38 = load ptr, ptr %5, align 8, !tbaa !150
  %39 = getelementptr inbounds nuw %struct.opj_tcd_cblk_enc, ptr %38, i32 0, i32 1
  %40 = load ptr, ptr %39, align 8, !tbaa !269
  call void @opj_free(ptr noundef %40)
  %41 = load ptr, ptr %5, align 8, !tbaa !150
  %42 = getelementptr inbounds nuw %struct.opj_tcd_cblk_enc, ptr %41, i32 0, i32 1
  store ptr null, ptr %42, align 8, !tbaa !269
  br label %43

43:                                               ; preds = %37, %32
  %44 = load ptr, ptr %5, align 8, !tbaa !150
  %45 = getelementptr inbounds nuw %struct.opj_tcd_cblk_enc, ptr %44, i32 0, i32 2
  %46 = load ptr, ptr %45, align 8, !tbaa !270
  %47 = icmp ne ptr %46, null
  br i1 %47, label %48, label %54

48:                                               ; preds = %43
  %49 = load ptr, ptr %5, align 8, !tbaa !150
  %50 = getelementptr inbounds nuw %struct.opj_tcd_cblk_enc, ptr %49, i32 0, i32 2
  %51 = load ptr, ptr %50, align 8, !tbaa !270
  call void @opj_free(ptr noundef %51)
  %52 = load ptr, ptr %5, align 8, !tbaa !150
  %53 = getelementptr inbounds nuw %struct.opj_tcd_cblk_enc, ptr %52, i32 0, i32 2
  store ptr null, ptr %53, align 8, !tbaa !270
  br label %54

54:                                               ; preds = %48, %43
  %55 = load ptr, ptr %5, align 8, !tbaa !150
  %56 = getelementptr inbounds nuw %struct.opj_tcd_cblk_enc, ptr %55, i32 1
  store ptr %56, ptr %5, align 8, !tbaa !150
  br label %57

57:                                               ; preds = %54
  %58 = load i32, ptr %3, align 4, !tbaa !3
  %59 = add i32 %58, 1
  store i32 %59, ptr %3, align 4, !tbaa !3
  br label %16, !llvm.loop !281

60:                                               ; preds = %16
  %61 = load ptr, ptr %2, align 8, !tbaa !46
  %62 = getelementptr inbounds nuw %struct.opj_tcd_precinct, ptr %61, i32 0, i32 6
  %63 = load ptr, ptr %62, align 8, !tbaa !36
  call void @opj_free(ptr noundef %63)
  %64 = load ptr, ptr %2, align 8, !tbaa !46
  %65 = getelementptr inbounds nuw %struct.opj_tcd_precinct, ptr %64, i32 0, i32 6
  store ptr null, ptr %65, align 8, !tbaa !36
  br label %66

66:                                               ; preds = %60, %1
  call void @llvm.lifetime.end.p0(i64 8, ptr %5) #8
  call void @llvm.lifetime.end.p0(i64 4, ptr %4) #8
  call void @llvm.lifetime.end.p0(i64 4, ptr %3) #8
  ret void
}