; Function Attrs: nounwind uwtable
define internal void @opj_tcd_code_block_enc_deallocate(ptr noundef captures(none) %0) unnamed_addr #0 {
  %2 = getelementptr inbounds nuw i8, ptr %0, i64 24
  %3 = load ptr, ptr %2, align 8, !tbaa !30
  %.not = icmp eq ptr %3, null
  br i1 %.not, label %23, label %4

4:                                                ; preds = %1
  %5 = getelementptr inbounds nuw i8, ptr %0, i64 32
  %6 = load i32, ptr %5, align 8, !tbaa !126
  %7 = lshr i32 %6, 6
  %.not27 = icmp ult i32 %6, 64
  br i1 %.not27, label %._crit_edge, label %.lr.ph

.lr.ph:                                           ; preds = %4, %19
  %.026 = phi ptr [ %20, %19 ], [ %3, %4 ]
  %.01725 = phi i32 [ %21, %19 ], [ 0, %4 ]
  %8 = load ptr, ptr %.026, align 8, !tbaa !150
  %.not22 = icmp eq ptr %8, null
  br i1 %.not22, label %11, label %9

9:                                                ; preds = %.lr.ph
  %10 = getelementptr inbounds i8, ptr %8, i64 -1
  tail call void @opj_free(ptr noundef nonnull %10) #16
  store ptr null, ptr %.026, align 8, !tbaa !150
  br label %11

11:                                               ; preds = %9, %.lr.ph
  %12 = getelementptr inbounds nuw i8, ptr %.026, i64 8
  %13 = load ptr, ptr %12, align 8, !tbaa !140
  %.not23 = icmp eq ptr %13, null
  br i1 %.not23, label %15, label %14

14:                                               ; preds = %11
  tail call void @opj_free(ptr noundef nonnull %13) #16
  store ptr null, ptr %12, align 8, !tbaa !140
  br label %15

15:                                               ; preds = %14, %11
  %16 = getelementptr inbounds nuw i8, ptr %.026, i64 16
  %17 = load ptr, ptr %16, align 8, !tbaa !144
  %.not24 = icmp eq ptr %17, null
  br i1 %.not24, label %19, label %18

18:                                               ; preds = %15
  tail call void @opj_free(ptr noundef nonnull %17) #16
  store ptr null, ptr %16, align 8, !tbaa !144
  br label %19

19:                                               ; preds = %18, %15
  %20 = getelementptr inbounds nuw i8, ptr %.026, i64 64
  %21 = add nuw nsw i32 %.01725, 1
  %exitcond.not = icmp eq i32 %21, %7
  br i1 %exitcond.not, label %._crit_edge.loopexit, label %.lr.ph, !llvm.loop !274

._crit_edge.loopexit:                             ; preds = %19
  %.pre = load ptr, ptr %2, align 8, !tbaa !30
  br label %._crit_edge

._crit_edge:                                      ; preds = %._crit_edge.loopexit, %4
  %22 = phi ptr [ %.pre, %._crit_edge.loopexit ], [ %3, %4 ]
  tail call void @opj_free(ptr noundef %22) #16
  store ptr null, ptr %2, align 8, !tbaa !30
  br label %23

23:                                               ; preds = %._crit_edge, %1
  ret void
}